Certificate:
    Data:
        Version: 3 (0x2)
        Serial Number: 2 (0x2)
    Signature Algorithm: sha256WithRSAEncryption
        Issuer: C=PL, CN=PHP1
        Validity
            Not Before: Oct  9 10:54:32 2017 GMT
            Not After : Oct  9 10:54:32 2018 GMT
        Subject: C=PL, CN=PHP3
        Subject Public Key Info:
            Public Key Algorithm: rsaEncryption
                Public-Key: (2048 bit)
                Modulus:
                    00:9d:a1:ce:92:a0:d3:2c:3c:7b:bd:68:13:7d:89:
                    b3:88:25:3c:18:6a:db:fc:45:27:26:39:58:76:6b:
                    db:fb:e2:fd:48:ff:9b:2f:04:33:c6:64:36:bf:64:
                    e6:00:3a:0a:2d:cc:0a:54:7d:11:ac:02:25:36:70:
                    60:9b:12:0b:70:14:8f:e4:fe:3d:7f:fb:2d:ce:1e:
                    fa:08:30:96:0a:72:3c:53:62:b4:23:16:a2:7d:0e:
                    eb:64:85:03:3a:a7:c6:49:48:ac:f8:3f:25:85:94:
                    60:52:3e:a7:46:92:56:28:be:11:85:cd:0e:67:30:
                    4a:ed:df:f8:cf:ee:bb:e1:b4:a4:f1:77:8f:c4:95:
                    64:57:33:02:12:04:54:ed:fa:8c:38:e9:4a:a7:9d:
                    58:16:9d:1a:60:d5:8e:b1:cb:e8:ff:cb:c9:93:ec:
                    a6:2b:28:e1:b9:15:89:d9:eb:b5:ce:7d:c9:4d:48:
                    fb:56:5b:e6:0b:54:fd:34:0b:02:55:b6:69:50:80:
                    af:05:56:e0:42:48:46:da:d8:c7:91:6c:6b:7e:36:
                    d7:64:0e:2c:e9:cb:13:42:83:b8:2f:09:f0:0a:2a:
                    c4:73:c5:76:d4:b7:75:ce:8d:70:dc:d3:31:9f:bc:
                    2d:3d:f5:98:72:54:d3:b0:3b:08:13:36:72:77:5d:
                    18:23
                Exponent: 65537 (0x10001)
        X509v3 extensions:
            X509v3 Basic Constraints: 
                CA:FALSE
            Netscape Comment: 
                OpenSSL Generated Certificate
            X509v3 Subject Key Identifier: 
                0A:B1:B7:7E:8C:3C:3D:CB:FA:C0:07:32:03:FC:03:0E:28:C8:6D:8E
            X509v3 Authority Key Identifier: 
                keyid:DB:71:ED:6D:9D:CC:34:77:8F:14:3F:67:41:36:15:23:D0:98:E6:40

    Signature Algorithm: sha256WithRSAEncryption
         63:77:71:2d:47:17:18:a9:36:25:b8:56:85:8c:33:03:45:e8:
         23:f1:7a:ca:78:79:b9:50:97:cd:72:47:41:ad:3d:a2:ea:d7:
         7c:a3:23:e3:f2:33:29:84:23:9b:88:0b:21:f7:2b:51:4d:50:
         9e:d7:30:f2:3f:ef:2d:97:cd:ef:e1:b8:a1:3b:15:da:f0:22:
         5a:19:f4:a3:99:4d:99:ec:66:f8:5d:a4:f3:bc:7a:df:15:4a:
         e3:5b:7e:f6:a7:fd:e1:66:7f:14:7a:b9:26:cf:06:99:a4:42:
         39:57:e8:50:a7:5c:7e:02:ca:1d:93:5a:42:4a:ba:e7:ed:bd:
         3c:ef:61:91:89:39:0e:4f:61:78:99:f8:c2:f8:34:0e:03:54:
         d6:b9:a5:ab:30:84:e9:ab:e7:f6:ee:e5:0d:35:e1:ed:f2:86:
         bd:ab:59:5a:6c:3c:7b:17:0b:36:ee:6d:86:ac:ad:a0:d2:7d:
         5b:29:89:c4:3b:f8:e5:c4:86:2c:7f:36:fe:82:c9:dd:db:5c:
         c2:cc:da:9a:59:26:83:54:f7:14:bd:7c:0a:05:74:4c:33:b6:
         4e:2e:69:6e:6d:f7:4f:61:ce:1e:58:19:01:a2:b7:a0:ea:b8:
         b6:30:93:fd:1c:e5:c9:7f:b0:39:3f:ed:5d:bb:2e:19:06:70:
         5d:65:f7:fd
-----BEGIN CERTIFICATE-----
MIIDLjCCAhagAwIBAgIBAjANBgkqhkiG9w0BAQsFADAcMQswCQYDVQQGEwJQTDEN
MAsGA1UEAwwEUEhQMTAeFw0xNzEwMDkxMDU0MzJaFw0xODEwMDkxMDU0MzJaMBwx
CzAJBgNVBAYTAlBMMQ0wCwYDVQQDDARQSFAzMIIBIjANBgkqhkiG9w0BAQEFAAOC
AQ8AMIIBCgKCAQEAnaHOkqDTLDx7vWgTfYmziCU8GGrb/EUnJjlYdmvb++L9SP+b
LwQzxmQ2v2TmADoKLcwKVH0RrAIlNnBgmxILcBSP5P49f/stzh76CDCWCnI8U2K0
IxaifQ7rZIUDOqfGSUis+D8lhZRgUj6nRpJWKL4Rhc0OZzBK7d/4z+674bSk8XeP
xJVkVzMCEgRU7fqMOOlKp51YFp0aYNWOscvo/8vJk+ymKyjhuRWJ2eu1zn3JTUj7
VlvmC1T9NAsCVbZpUICvBVbgQkhG2tjHkWxrfjbXZA4s6csTQoO4LwnwCirEc8V2
1Ld1zo1w3NMxn7wtPfWYclTTsDsIEzZyd10YIwIDAQABo3sweTAJBgNVHRMEAjAA
MCwGCWCGSAGG+EIBDQQfFh1PcGVuU1NMIEdlbmVyYXRlZCBDZXJ0aWZpY2F0ZTAd
BgNVHQ4EFgQUCrG3fow8Pcv6wAcyA/wDDijIbY4wHwYDVR0jBBgwFoAU23HtbZ3M
NHePFD9nQTYVI9CY5kAwDQYJKoZIhvcNAQELBQADggEBAGN3cS1HFxipNiW4VoWM
MwNF6CPxesp4eblQl81yR0GtPaLq13yjI+PyMymEI5uICyH3K1FNUJ7XMPI/7y2X
ze/huKE7FdrwIloZ9KOZTZnsZvhdpPO8et8VSuNbfvan/eFmfxR6uSbPBpmkQjlX
6FCnXH4Cyh2TWkJKuuftvTzvYZGJOQ5PYXiZ+ML4NA4DVNa5paswhOmr5/bu5Q01
4e3yhr2rWVpsPHsXCzbubYasraDSfVspicQ7+OXEhix/Nv6Cyd3bXMLM2ppZJoNU
9xS9fAoFdEwztk4uaW5t909hzh5YGQGit6DquLYwk/0c5cl/sDk/7V27LhkGcF1l
9/0=
-----END CERTIFICATE-----
