Certificate:
    Data:
        Version: 3 (0x2)
        Serial Number: 1 (0x1)
    Signature Algorithm: sha256WithRSAEncryption
        Issuer: C=PL, CN=PHP1
        Validity
            Not Before: Oct  9 10:54:08 2017 GMT
            Not After : Oct  9 10:54:08 2018 GMT
        Subject: C=PL, CN=PHP2
        Subject Public Key Info:
            Public Key Algorithm: rsaEncryption
                Public-Key: (2048 bit)
                Modulus:
                    00:c6:78:fa:12:f8:a2:72:b3:b5:8c:32:54:21:42:
                    7a:74:05:51:63:1c:bd:2f:06:7c:fa:ee:70:69:b7:
                    07:fc:33:ea:14:2f:a1:94:ab:d1:8b:c1:e1:fc:45:
                    2a:40:5d:97:7a:b3:20:a4:4c:e9:af:9e:2f:b9:b5:
                    a5:a1:b0:50:1e:00:82:45:99:89:36:ee:7a:8a:f5:
                    43:73:8c:d3:4e:c4:08:22:4c:36:f9:5b:57:5f:4c:
                    88:66:74:c3:06:56:16:05:80:20:70:82:1a:4c:1a:
                    42:13:c1:82:1e:4b:a8:f4:f7:de:07:3a:ed:7c:03:
                    0b:10:63:26:04:02:31:39:a2:54:df:74:46:26:1a:
                    20:35:d3:23:b3:cc:f9:da:0b:50:29:4d:4e:5f:d6:
                    bb:fd:d2:a2:c2:5a:45:d7:1f:d8:29:bd:62:d9:13:
                    8d:53:58:43:e9:43:29:ff:f4:c4:ee:02:da:6b:58:
                    6d:f2:bd:32:6e:19:92:5f:d5:cb:1a:8a:52:69:49:
                    64:ba:ca:27:dd:43:27:35:cf:3d:bc:94:66:a0:1f:
                    a0:04:be:4a:3b:f3:07:f5:62:2c:4d:1c:6a:83:cf:
                    d2:bb:15:c3:56:13:4f:95:0f:d9:f1:b2:9d:d7:e9:
                    16:31:a1:1b:c1:cf:5d:ce:e2:03:d9:c7:b4:0f:76:
                    7d:43
                Exponent: 65537 (0x10001)
        X509v3 extensions:
            X509v3 Basic Constraints: 
                CA:FALSE
            Netscape Comment: 
                OpenSSL Generated Certificate
            X509v3 Subject Key Identifier: 
                C6:47:1F:CD:64:B7:04:BD:17:69:51:3D:B5:3D:28:28:60:1B:C2:32
            X509v3 Authority Key Identifier: 
                keyid:DB:71:ED:6D:9D:CC:34:77:8F:14:3F:67:41:36:15:23:D0:98:E6:40

    Signature Algorithm: sha256WithRSAEncryption
         1c:36:11:06:41:8d:e9:7d:6c:a5:ac:19:ec:e8:5d:35:06:44:
         22:3d:77:a0:3f:3b:94:19:28:d3:a4:0f:8d:59:d4:9c:48:35:
         0e:37:6b:80:6f:d7:ba:32:20:0a:e0:9c:7b:f7:4f:1a:5a:a7:
         f9:9b:3a:c7:02:3f:87:65:fa:1e:59:41:11:96:86:4d:a9:31:
         cf:3f:7b:fe:93:ac:19:7b:e4:f1:a0:66:f0:c2:ce:8d:44:36:
         e1:2f:ca:ae:12:04:08:5a:b6:25:ec:18:82:20:92:3f:6c:2d:
         8a:62:c2:4c:de:14:db:1f:8f:f1:0f:e2:36:18:cc:73:6f:77:
         4b:a9:da:16:a3:78:81:f0:a3:e1:32:9e:3f:62:71:6d:11:52:
         0a:5b:20:ea:ab:fe:35:75:c2:fc:d7:33:d3:36:09:8d:7c:b1:
         1d:58:a7:cb:87:74:8c:bd:91:90:3f:37:b2:19:9d:58:eb:d4:
         fe:5d:31:ad:17:c5:3b:ec:0b:23:7d:3a:a2:98:de:0e:f5:01:
         05:3a:96:11:60:03:54:50:e3:91:87:79:44:47:73:5b:0d:d6:
         df:f3:c9:39:02:30:41:58:8f:91:4b:04:9c:98:6e:35:e1:69:
         58:8e:78:6b:0c:90:b3:8d:85:5f:0d:6f:e3:3f:98:63:bb:42:
         ad:a0:a9:a5
-----BEGIN CERTIFICATE-----
MIIDLjCCAhagAwIBAgIBATANBgkqhkiG9w0BAQsFADAcMQswCQYDVQQGEwJQTDEN
MAsGA1UEAwwEUEhQMTAeFw0xNzEwMDkxMDU0MDhaFw0xODEwMDkxMDU0MDhaMBwx
CzAJBgNVBAYTAlBMMQ0wCwYDVQQDDARQSFAyMIIBIjANBgkqhkiG9w0BAQEFAAOC
AQ8AMIIBCgKCAQEAxnj6EviicrO1jDJUIUJ6dAVRYxy9LwZ8+u5wabcH/DPqFC+h
lKvRi8Hh/EUqQF2XerMgpEzpr54vubWlobBQHgCCRZmJNu56ivVDc4zTTsQIIkw2
+VtXX0yIZnTDBlYWBYAgcIIaTBpCE8GCHkuo9PfeBzrtfAMLEGMmBAIxOaJU33RG
JhogNdMjs8z52gtQKU1OX9a7/dKiwlpF1x/YKb1i2RONU1hD6UMp//TE7gLaa1ht
8r0ybhmSX9XLGopSaUlkuson3UMnNc89vJRmoB+gBL5KO/MH9WIsTRxqg8/SuxXD
VhNPlQ/Z8bKd1+kWMaEbwc9dzuID2ce0D3Z9QwIDAQABo3sweTAJBgNVHRMEAjAA
MCwGCWCGSAGG+EIBDQQfFh1PcGVuU1NMIEdlbmVyYXRlZCBDZXJ0aWZpY2F0ZTAd
BgNVHQ4EFgQUxkcfzWS3BL0XaVE9tT0oKGAbwjIwHwYDVR0jBBgwFoAU23HtbZ3M
NHePFD9nQTYVI9CY5kAwDQYJKoZIhvcNAQELBQADggEBABw2EQZBjel9bKWsGezo
XTUGRCI9d6A/O5QZKNOkD41Z1JxINQ43a4Bv17oyIArgnHv3Txpap/mbOscCP4dl
+h5ZQRGWhk2pMc8/e/6TrBl75PGgZvDCzo1ENuEvyq4SBAhatiXsGIIgkj9sLYpi
wkzeFNsfj/EP4jYYzHNvd0up2hajeIHwo+Eynj9icW0RUgpbIOqr/jV1wvzXM9M2
CY18sR1Yp8uHdIy9kZA/N7IZnVjr1P5dMa0XxTvsCyN9OqKY3g71AQU6lhFgA1RQ
45GHeURHc1sN1t/zyTkCMEFYj5FLBJyYbjXhaViOeGsMkLONhV8Nb+M/mGO7Qq2g
qaU=
-----END CERTIFICATE-----
